Certificate:
    Data:
        Version: 3 (0x2)
        Serial Number: 2 (0x2)
    Signature Algorithm: sha1WithRSAEncryption
        Issuer: CN=BlocklandGlass Dev Server, O=BLG.Master
        Validity
            Not Before: Jul 31 16:12:58 2012 GMT
            Not After : Jul 30 16:12:58 2017 GMT
        Subject: CN=BlocklandGlass Dev Server, O=BLG.Master
        Subject Public Key Info:
            Public Key Algorithm: rsaEncryption
                Public-Key: (2048 bit)
                Modulus:
                    00:f9:3c:fc:bd:80:cd:d4:a7:e4:e4:a9:7f:e2:c8:
                    95:6e:fa:24:44:c2:e6:e1:ee:57:69:69:e8:cf:33:
                    c2:fb:79:20:2f:cd:e5:cd:44:59:b0:2d:dc:50:8c:
                    57:35:3e:05:de:aa:f8:9e:ee:37:81:20:7b:d5:4e:
                    ce:60:24:24:30:26:66:39:d8:9e:36:4e:ce:1f:01:
                    ab:b2:5c:f8:dc:e7:e8:d0:ef:13:45:6a:0a:5d:6d:
                    8d:6e:d2:b1:a0:2d:0b:29:19:0f:0a:87:56:52:10:
                    fd:38:bc:bf:e7:ca:cb:0f:38:64:e5:cc:2d:35:d8:
                    6d:6b:57:6a:a4:30:93:49:03:29:32:1f:41:e0:01:
                    5b:70:e4:a1:69:60:93:da:e2:9a:94:63:07:e4:4a:
                    e5:f4:eb:60:9e:c0:e9:e3:9e:08:9e:47:ae:72:9d:
                    53:07:d9:3f:52:8a:7d:fe:a6:81:6d:25:96:b6:8f:
                    0d:73:9e:00:54:b7:ee:fa:0b:c6:18:2e:8d:e2:1b:
                    ed:82:da:0f:7d:e5:36:99:0d:6f:2c:88:4d:b8:b4:
                    36:43:cd:23:72:6e:98:57:a1:a1:03:9d:e0:c5:c6:
                    5f:e1:3d:7d:5a:c1:8b:dc:ce:de:64:35:9e:23:e2:
                    be:0d:a9:61:0d:bd:27:6f:f4:3d:7a:8a:9e:64:3b:
                    4b:fd
                Exponent: 65537 (0x10001)
        X509v3 extensions:
            X509v3 Basic Constraints: 
                CA:TRUE
    Signature Algorithm: sha1WithRSAEncryption
         66:52:c0:70:80:1d:f1:67:84:66:44:92:1d:47:20:2d:de:b0:
         2c:7b:cc:97:cf:a5:f4:ab:63:5e:b8:fc:f1:5d:2e:9c:c0:c2:
         f7:a3:94:1d:da:14:30:b3:07:4f:dc:77:33:ad:40:b1:1f:33:
         16:a0:72:ad:5a:a4:3e:78:e0:9b:37:c0:41:22:15:67:58:9a:
         05:ae:ab:f8:ed:02:7b:03:b5:52:5b:b6:b0:54:2f:51:a6:d0:
         c7:3d:b3:ae:1a:28:b3:42:c4:0c:6c:58:25:55:4c:7d:07:fe:
         9d:af:86:46:32:06:78:8b:74:3b:2d:4f:c7:a3:bf:74:c9:b7:
         93:d4:09:84:17:0f:54:bc:26:0a:62:78:78:bf:41:5c:05:28:
         5b:48:4d:83:cd:38:48:6f:04:fd:d3:0d:a9:57:f7:e0:32:87:
         09:73:95:af:27:83:7a:43:36:ac:3d:ca:20:46:ee:4e:bb:08:
         fe:a1:82:de:9d:86:84:0a:77:0b:c0:12:3a:b4:f6:49:95:44:
         36:97:af:59:e2:9c:72:df:37:88:24:be:c7:e6:be:5b:5f:f8:
         1c:54:2b:81:54:7d:ab:30:75:5d:34:9d:b3:6f:15:fe:53:21:
         1a:22:bd:e1:3d:f1:08:45:c2:96:a2:3d:f7:cc:f7:88:1f:36:
         8f:d5:69:63
-----BEGIN CERTIFICATE-----
MIIC/TCCAeWgAwIBAgIBAjANBgkqhkiG9w0BAQUFADA5MSIwIAYDVQQDExlCbG9j
a2xhbmRHbGFzcyBEZXYgU2VydmVyMRMwEQYDVQQKEwpCTEcuTWFzdGVyMB4XDTEy
MDczMTE2MTI1OFoXDTE3MDczMDE2MTI1OFowOTEiMCAGA1UEAxMZQmxvY2tsYW5k
R2xhc3MgRGV2IFNlcnZlcjETMBEGA1UEChMKQkxHLk1hc3RlcjCCASIwDQYJKoZI
hvcNAQEBBQADggEPADCCAQoCggEBAPk8/L2AzdSn5OSpf+LIlW76JETC5uHuV2lp
6M8zwvt5IC/N5c1EWbAt3FCMVzU+Bd6q+J7uN4Ege9VOzmAkJDAmZjnYnjZOzh8B
q7Jc+Nzn6NDvE0VqCl1tjW7SsaAtCykZDwqHVlIQ/Ti8v+fKyw84ZOXMLTXYbWtX
aqQwk0kDKTIfQeABW3DkoWlgk9rimpRjB+RK5fTrYJ7A6eOeCJ5HrnKdUwfZP1KK
ff6mgW0llraPDXOeAFS37voLxhgujeIb7YLaD33lNpkNbyyITbi0NkPNI3JumFeh
oQOd4MXGX+E9fVrBi9zO3mQ1niPivg2pYQ29J2/0PXqKnmQ7S/0CAwEAAaMQMA4w
DAYDVR0TBAUwAwEB/zANBgkqhkiG9w0BAQUFAAOCAQEAZlLAcIAd8WeEZkSSHUcg
Ld6wLHvMl8+l9KtjXrj88V0unMDC96OUHdoUMLMHT9x3M61AsR8zFqByrVqkPnjg
mzfAQSIVZ1iaBa6r+O0CewO1Ulu2sFQvUabQxz2zrhoos0LEDGxYJVVMfQf+na+G
RjIGeIt0Oy1Px6O/dMm3k9QJhBcPVLwmCmJ4eL9BXAUoW0hNg804SG8E/dMNqVf3
4DKHCXOVryeDekM2rD3KIEbuTrsI/qGC3p2GhAp3C8ASOrT2SZVENpevWeKcct83
iCS+x+a+W1/4HFQrgVR9qzB1XTSds28V/lMhGiK94T3xCEXClqI998z3iB82j9Vp
Yw==
-----END CERTIFICATE-----
