Certificate:
    Data:
        Version: 3 (0x2)
        Serial Number: 4 (0x4)
    Signature Algorithm: sha1WithRSAEncryption
        Issuer: CN=BlocklandGlass Dev Wrapper, O=BLG.Wrapper, OU=TestAcc
        Validity
            Not Before: Jul 31 16:12:59 2012 GMT
            Not After : Jul 30 16:12:59 2017 GMT
        Subject: CN=BlocklandGlass Dev Client, O=BLG.Client
        Subject Public Key Info:
            Public Key Algorithm: rsaEncryption
                Public-Key: (2048 bit)
                Modulus:
                    00:a4:80:c2:50:d3:e1:26:c3:e1:cc:8a:3d:b0:e0:
                    ee:ee:2a:47:a3:ea:b4:57:de:f7:ae:32:7b:8d:d2:
                    60:f8:64:2e:dc:a2:2c:76:88:8e:85:d9:42:bf:ec:
                    53:36:a1:c5:46:d9:03:9d:b3:9e:81:20:82:d7:b2:
                    9f:14:77:f2:12:6c:98:31:76:17:d4:af:d2:a8:fc:
                    8c:67:8b:0e:d5:0a:46:e2:d7:fe:af:62:dc:1f:b3:
                    f3:de:24:86:ca:06:34:71:9a:1c:66:85:78:59:18:
                    8b:3e:d8:9e:65:50:c2:44:a1:b6:eb:1a:74:09:3f:
                    8a:a0:e0:a4:99:37:80:01:ad:08:bd:05:0f:f7:00:
                    d2:54:8d:0f:1c:c4:38:27:0e:ef:2a:f2:35:b0:1d:
                    26:67:60:31:b8:81:e7:56:04:0d:3b:32:c0:13:ec:
                    41:32:a0:ff:99:40:a7:2e:04:8a:42:a8:34:1a:c9:
                    86:f8:4b:56:ca:77:d7:3f:04:61:f3:08:ad:7a:e7:
                    88:02:8d:bd:ac:1a:37:ab:73:97:29:a5:0c:87:7a:
                    55:07:92:70:2f:b6:5d:da:f4:61:af:da:8f:c6:3f:
                    46:04:80:26:e2:44:ef:3a:3e:21:56:82:5c:dd:21:
                    be:76:b9:2a:cf:a2:4a:f4:19:ec:5b:e0:0b:6d:25:
                    7f:8d
                Exponent: 65537 (0x10001)
        X509v3 extensions:
            X509v3 Basic Constraints: 
                CA:FALSE
    Signature Algorithm: sha1WithRSAEncryption
         90:03:fc:73:3c:4a:ce:73:76:a6:ea:60:5e:ad:f8:99:5d:aa:
         97:ab:70:86:f1:f5:9e:fe:bb:6a:83:c1:2d:3e:92:9f:e1:78:
         71:09:bd:18:8c:95:f3:40:af:9e:8e:2c:5f:64:a9:6d:48:0c:
         ba:96:ff:49:6b:16:1a:9e:58:59:7f:2a:55:97:ec:c9:8f:3c:
         93:e9:33:a0:4f:2b:3c:52:04:f0:9c:25:78:77:80:ca:03:24:
         97:43:18:9b:a8:b5:6c:f7:5c:77:40:b4:0c:5f:f8:5a:3d:8a:
         5b:ee:bb:02:89:ba:9f:d8:c2:6c:62:f0:41:c3:a0:bb:02:fb:
         2a:6a:11:6d:c1:81:4d:18:4c:d3:1d:dc:12:1f:70:a9:ca:42:
         ed:2c:ba:3c:da:57:c9:c2:2c:6b:ae:b1:78:4a:aa:5d:8e:18:
         7e:0b:76:10:84:ec:07:0c:7f:83:63:1b:b9:3f:4d:3d:46:73:
         24:78:af:27:06:10:2c:ac:23:1e:55:5b:00:dd:4f:c0:c5:d0:
         30:41:a5:1f:39:a0:9e:87:8d:f0:3e:da:16:b6:f0:a6:62:93:
         fc:fe:33:80:2e:64:3d:8f:80:01:ef:69:74:99:c8:c2:f6:0c:
         3b:7d:39:3d:8b:88:18:cc:61:eb:40:22:fb:61:2e:49:58:eb:
         02:57:c9:7e
-----BEGIN CERTIFICATE-----
MIIDDjCCAfagAwIBAgIBBDANBgkqhkiG9w0BAQUFADBNMSMwIQYDVQQDExpCbG9j
a2xhbmRHbGFzcyBEZXYgV3JhcHBlcjEUMBIGA1UEChMLQkxHLldyYXBwZXIxEDAO
BgNVBAsTB1Rlc3RBY2MwHhcNMTIwNzMxMTYxMjU5WhcNMTcwNzMwMTYxMjU5WjA5
MSIwIAYDVQQDExlCbG9ja2xhbmRHbGFzcyBEZXYgQ2xpZW50MRMwEQYDVQQKEwpC
TEcuQ2xpZW50MIIBIjANBgkqhkiG9w0BAQEFAAOCAQ8AMIIBCgKCAQEApIDCUNPh
JsPhzIo9sODu7ipHo+q0V973rjJ7jdJg+GQu3KIsdoiOhdlCv+xTNqHFRtkDnbOe
gSCC17KfFHfyEmyYMXYX1K/SqPyMZ4sO1QpG4tf+r2LcH7Pz3iSGygY0cZocZoV4
WRiLPtieZVDCRKG26xp0CT+KoOCkmTeAAa0IvQUP9wDSVI0PHMQ4Jw7vKvI1sB0m
Z2AxuIHnVgQNOzLAE+xBMqD/mUCnLgSKQqg0GsmG+EtWynfXPwRh8witeueIAo29
rBo3q3OXKaUMh3pVB5JwL7Zd2vRhr9qPxj9GBIAm4kTvOj4hVoJc3SG+drkqz6JK
9BnsW+ALbSV/jQIDAQABow0wCzAJBgNVHRMEAjAAMA0GCSqGSIb3DQEBBQUAA4IB
AQCQA/xzPErOc3am6mBerfiZXaqXq3CG8fWe/rtqg8EtPpKf4XhxCb0YjJXzQK+e
jixfZKltSAy6lv9JaxYanlhZfypVl+zJjzyT6TOgTys8UgTwnCV4d4DKAySXQxib
qLVs91x3QLQMX/haPYpb7rsCibqf2MJsYvBBw6C7AvsqahFtwYFNGEzTHdwSH3Cp
ykLtLLo82lfJwixrrrF4Sqpdjhh+C3YQhOwHDH+DYxu5P009RnMkeK8nBhAsrCMe
VVsA3U/AxdAwQaUfOaCeh43wPtoWtvCmYpP8/jOALmQ9j4AB72l0mcjC9gw7fTk9
i4gYzGHrQCL7YS5JWOsCV8l+
-----END CERTIFICATE-----
