Certificate:
    Data:
        Version: 3 (0x2)
        Serial Number: 3 (0x3)
    Signature Algorithm: sha1WithRSAEncryption
        Issuer: CN=BlocklandGlass Dev Server, O=BLG.Master
        Validity
            Not Before: Jul 31 16:12:59 2012 GMT
            Not After : Jul 30 16:12:59 2017 GMT
        Subject: CN=BlocklandGlass Dev Wrapper, O=BLG.Wrapper, OU=TestAcc
        Subject Public Key Info:
            Public Key Algorithm: rsaEncryption
                Public-Key: (2048 bit)
                Modulus:
                    00:c0:72:75:77:45:9d:b2:4f:a6:21:81:da:76:e8:
                    8b:7b:54:c7:a8:b0:b7:b1:78:1e:6e:67:47:dd:3e:
                    8d:18:54:17:c3:86:b1:e8:5b:88:9f:e1:fc:2f:77:
                    c2:ce:c2:b5:4a:3f:bf:25:b3:6a:35:d2:09:98:30:
                    92:1b:72:d5:f3:7b:eb:8a:35:af:2a:d9:c4:0b:ce:
                    10:e0:c3:9a:57:45:1e:f1:63:66:ca:0b:36:a2:fc:
                    b1:cb:3c:e3:c4:5f:c5:11:57:44:49:5b:ac:29:3d:
                    b4:25:b3:e5:b8:ab:ff:57:b9:ee:d2:28:53:bb:74:
                    65:d4:1b:2e:aa:a3:16:58:04:c6:23:6f:21:4a:a1:
                    e8:7b:c1:48:71:52:2f:b2:38:0c:67:39:bb:bf:ec:
                    cc:5c:7b:65:7f:1b:cb:b8:46:08:70:c6:5b:70:5a:
                    a5:72:1c:46:aa:95:66:70:70:ec:b3:a6:19:7b:2f:
                    5f:5a:51:33:f2:87:8e:3b:f1:44:4e:fb:62:56:6c:
                    39:f4:ec:39:53:7f:37:f5:db:e9:fd:9b:70:95:39:
                    ef:16:a7:2f:ab:27:19:57:16:28:c7:fe:e3:db:1d:
                    a2:30:aa:b8:ad:d6:aa:54:e5:d8:63:68:62:98:38:
                    70:8f:01:fb:19:97:6a:9a:76:b5:18:05:3a:c4:a2:
                    c3:0d
                Exponent: 65537 (0x10001)
        X509v3 extensions:
            X509v3 Basic Constraints: 
                CA:TRUE
    Signature Algorithm: sha1WithRSAEncryption
         0a:c0:6f:88:04:12:64:c8:4f:07:01:f2:cc:88:24:ae:77:3d:
         5b:d0:fa:64:4b:db:ed:11:e2:09:93:11:79:dc:65:9a:be:9c:
         10:15:16:2c:a4:51:eb:9a:af:f5:7d:39:0f:e6:f4:d8:e0:d5:
         3c:4b:ae:ea:39:e2:62:1e:39:ba:20:76:89:1d:f8:fe:cf:63:
         f7:ff:81:66:51:37:f9:38:e2:55:55:d1:a9:1f:c9:01:63:d9:
         a1:29:c7:1d:66:59:a6:80:b7:43:3e:77:5a:c5:0b:24:fb:46:
         8f:8a:d6:58:cc:6b:43:ba:c6:80:68:65:dc:87:3f:a4:19:00:
         0c:31:23:c4:a0:80:76:67:6f:95:4a:0d:8d:8d:5a:71:46:2d:
         36:52:8a:57:46:48:cc:1d:bf:9a:7a:fb:5a:cc:fc:57:78:86:
         d9:4e:4d:90:f7:10:ae:01:42:f0:67:c9:1e:c3:f6:cb:72:0e:
         68:8b:46:60:34:f2:21:f1:59:1a:5a:00:07:c3:33:e5:bb:58:
         dc:5e:77:9e:07:41:05:fa:3a:4e:d4:8b:7b:b0:89:db:24:bc:
         74:de:52:57:71:4d:e0:ee:8c:15:e4:2c:6e:11:cf:58:e7:a7:
         c3:63:96:14:7d:22:29:b9:a5:aa:6f:43:b5:a0:10:c8:b2:79:
         5f:c7:c4:11
-----BEGIN CERTIFICATE-----
MIIDETCCAfmgAwIBAgIBAzANBgkqhkiG9w0BAQUFADA5MSIwIAYDVQQDExlCbG9j
a2xhbmRHbGFzcyBEZXYgU2VydmVyMRMwEQYDVQQKEwpCTEcuTWFzdGVyMB4XDTEy
MDczMTE2MTI1OVoXDTE3MDczMDE2MTI1OVowTTEjMCEGA1UEAxMaQmxvY2tsYW5k
R2xhc3MgRGV2IFdyYXBwZXIxFDASBgNVBAoTC0JMRy5XcmFwcGVyMRAwDgYDVQQL
EwdUZXN0QWNjMIIBIjANBgkqhkiG9w0BAQEFAAOCAQ8AMIIBCgKCAQEAwHJ1d0Wd
sk+mIYHaduiLe1THqLC3sXgebmdH3T6NGFQXw4ax6FuIn+H8L3fCzsK1Sj+/JbNq
NdIJmDCSG3LV83vrijWvKtnEC84Q4MOaV0Ue8WNmygs2ovyxyzzjxF/FEVdESVus
KT20JbPluKv/V7nu0ihTu3Rl1BsuqqMWWATGI28hSqHoe8FIcVIvsjgMZzm7v+zM
XHtlfxvLuEYIcMZbcFqlchxGqpVmcHDss6YZey9fWlEz8oeOO/FETvtiVmw59Ow5
U3839dvp/ZtwlTnvFqcvqycZVxYox/7j2x2iMKq4rdaqVOXYY2himDhwjwH7GZdq
mna1GAU6xKLDDQIDAQABoxAwDjAMBgNVHRMEBTADAQH/MA0GCSqGSIb3DQEBBQUA
A4IBAQAKwG+IBBJkyE8HAfLMiCSudz1b0PpkS9vtEeIJkxF53GWavpwQFRYspFHr
mq/1fTkP5vTY4NU8S67qOeJiHjm6IHaJHfj+z2P3/4FmUTf5OOJVVdGpH8kBY9mh
KccdZlmmgLdDPndaxQsk+0aPitZYzGtDusaAaGXchz+kGQAMMSPEoIB2Z2+VSg2N
jVpxRi02UopXRkjMHb+aevtazPxXeIbZTk2Q9xCuAULwZ8kew/bLcg5oi0ZgNPIh
8VkaWgAHwzPlu1jcXneeB0EF+jpO1It7sInbJLx03lJXcU3g7owV5CxuEc9Y56fD
Y5YUfSIpuaWqb0O1oBDIsnlfx8QR
-----END CERTIFICATE-----
